; ModuleID = 'source-C-CXX/26/1839.c'
source_filename = "source-C-CXX/26/1839.c"
target datalayout = "e-m:e-p270:32:32-p271:32:32-p272:64:64-i64:64-f80:128-n8:16:32:64-S128"
target triple = "x86_64-pc-linux-gnu"

%struct._IO_FILE = type { i32, i8*, i8*, i8*, i8*, i8*, i8*, i8*, i8*, i8*, i8*, i8*, %struct._IO_marker*, %struct._IO_FILE*, i32, i32, i64, i16, i8, [1 x i8], i8*, i64, %struct._IO_codecvt*, %struct._IO_wide_data*, %struct._IO_FILE*, i8*, i64, i32, [20 x i8] }
%struct._IO_marker = type opaque
%struct._IO_codecvt = type opaque
%struct._IO_wide_data = type opaque

@.str = private unnamed_addr constant [3 x i8] c"%d\00", align 1
@.str.1 = private unnamed_addr constant [12 x i8] c"%lf %lf %lf\00", align 1
@.str.2 = private unnamed_addr constant [19 x i8] c"x1=%.5lf;x2=%.5lf\0A\00", align 1
@.str.3 = private unnamed_addr constant [13 x i8] c"x1=x2=%.5lf\0A\00", align 1
@.str.4 = private unnamed_addr constant [33 x i8] c"x1=%.5lf+%.5lfi;x2=%.5lf-%.5lfi\0A\00", align 1
@stdin = external local_unnamed_addr global %struct._IO_FILE*, align 8

; Function Attrs: nofree nounwind sspstrong uwtable
define dso_local i32 @main() local_unnamed_addr #0 {
  %1 = alloca i32, align 4
  %2 = alloca [100 x [100 x double]], align 16
  %3 = bitcast i32* %1 to i8*
  call void @llvm.lifetime.start.p0i8(i64 4, i8* nonnull %3) #5
  %4 = bitcast [100 x [100 x double]]* %2 to i8*
  call void @llvm.lifetime.start.p0i8(i64 80000, i8* nonnull %4) #5
  call void @llvm.memset.p0i8.i64(i8* noundef nonnull align 16 dereferenceable(80000) %4, i8 0, i64 80000, i1 false)
  %5 = call i32 (i8*, ...) @__isoc99_scanf(i8* getelementptr inbounds ([3 x i8], [3 x i8]* @.str, i64 0, i64 0), i32* nonnull %1)
  %6 = call float @sqrtf(float -1.000000e+00) #4
  %7 = load i32, i32* %1, align 4, !tbaa !5
  %8 = icmp sgt i32 %7, 0
  br i1 %8, label %11, label %96

9:                                                ; preds = %58
  %10 = icmp sgt i32 %60, 0
  br i1 %10, label %63, label %96

11:                                               ; preds = %0, %58
  %12 = phi i64 [ %59, %58 ], [ 0, %0 ]
  %13 = getelementptr inbounds [100 x [100 x double]], [100 x [100 x double]]* %2, i64 0, i64 %12, i64 0
  %14 = getelementptr inbounds [100 x [100 x double]], [100 x [100 x double]]* %2, i64 0, i64 %12, i64 1
  %15 = getelementptr inbounds [100 x [100 x double]], [100 x [100 x double]]* %2, i64 0, i64 %12, i64 2
  %16 = call i32 (i8*, ...) @__isoc99_scanf(i8* getelementptr inbounds ([12 x i8], [12 x i8]* @.str.1, i64 0, i64 0), double* nonnull %13, double* nonnull %14, double* nonnull %15)
  %17 = load double, double* %13, align 16, !tbaa !9
  %18 = bitcast double* %14 to <2 x double>*
  %19 = load <2 x double>, <2 x double>* %18, align 8, !tbaa !9
  %20 = fmul double %17, 4.000000e+00
  %21 = extractelement <2 x double> %19, i32 0
  %22 = insertelement <2 x double> %19, double %20, i32 1
  %23 = fmul <2 x double> %19, %22
  %24 = extractelement <2 x double> %23, i32 0
  %25 = extractelement <2 x double> %23, i32 1
  %26 = fsub double %24, %25
  %27 = fcmp ult double %26, 0.000000e+00
  br i1 %27, label %39, label %28

28:                                               ; preds = %11
  %29 = fneg double %21
  %30 = call double @sqrt(double %26) #5
  %31 = fsub double %30, %21
  %32 = fmul double %17, 2.000000e+00
  %33 = fdiv double %31, %32
  %34 = getelementptr inbounds [100 x [100 x double]], [100 x [100 x double]]* %2, i64 0, i64 %12, i64 3
  store double %33, double* %34, align 8, !tbaa !9
  %35 = call double @sqrt(double %26) #5
  %36 = fsub double %29, %35
  %37 = fdiv double %36, %32
  %38 = getelementptr inbounds [100 x [100 x double]], [100 x [100 x double]]* %2, i64 0, i64 %12, i64 4
  store double %37, double* %38, align 16, !tbaa !9
  br label %58

39:                                               ; preds = %11
  %40 = fcmp oeq double %21, 0.000000e+00
  br i1 %40, label %41, label %43

41:                                               ; preds = %39
  %42 = fmul double %17, 2.000000e+00
  br label %47

43:                                               ; preds = %39
  %44 = fneg double %21
  %45 = fmul double %17, 2.000000e+00
  %46 = fdiv double %44, %45
  br label %47

47:                                               ; preds = %43, %41
  %48 = phi double [ %45, %43 ], [ %42, %41 ]
  %49 = phi double [ %46, %43 ], [ 0.000000e+00, %41 ]
  %50 = getelementptr inbounds [100 x [100 x double]], [100 x [100 x double]]* %2, i64 0, i64 %12, i64 3
  store double %49, double* %50, align 8
  %51 = fsub double %25, %24
  %52 = call double @sqrt(double %51) #5
  %53 = fdiv double %52, %48
  %54 = getelementptr inbounds [100 x [100 x double]], [100 x [100 x double]]* %2, i64 0, i64 %12, i64 4
  store double %53, double* %54, align 16, !tbaa !9
  %55 = call double @sqrt(double %51) #5
  %56 = fdiv double %55, %48
  %57 = getelementptr inbounds [100 x [100 x double]], [100 x [100 x double]]* %2, i64 0, i64 %12, i64 5
  store double %56, double* %57, align 8, !tbaa !9
  br label %58

58:                                               ; preds = %28, %47
  %59 = add nuw nsw i64 %12, 1
  %60 = load i32, i32* %1, align 4, !tbaa !5
  %61 = sext i32 %60 to i64
  %62 = icmp slt i64 %59, %61
  br i1 %62, label %11, label %9, !llvm.loop !11

63:                                               ; preds = %9, %91
  %64 = phi i64 [ %92, %91 ], [ 0, %9 ]
  %65 = getelementptr inbounds [100 x [100 x double]], [100 x [100 x double]]* %2, i64 0, i64 %64, i64 1
  %66 = getelementptr inbounds [100 x [100 x double]], [100 x [100 x double]]* %2, i64 0, i64 %64, i64 0
  %67 = load double, double* %66, align 16, !tbaa !9
  %68 = fmul double %67, 4.000000e+00
  %69 = bitcast double* %65 to <2 x double>*
  %70 = load <2 x double>, <2 x double>* %69, align 8, !tbaa !9
  %71 = insertelement <2 x double> %70, double %68, i32 1
  %72 = fmul <2 x double> %70, %71
  %73 = shufflevector <2 x double> %72, <2 x double> poison, <2 x i32> <i32 1, i32 undef>
  %74 = fsub <2 x double> %72, %73
  %75 = extractelement <2 x double> %74, i32 0
  %76 = fcmp ult double %75, 0.000000e+00
  %77 = getelementptr inbounds [100 x [100 x double]], [100 x [100 x double]]* %2, i64 0, i64 %64, i64 3
  %78 = load double, double* %77, align 8, !tbaa !9
  %79 = getelementptr inbounds [100 x [100 x double]], [100 x [100 x double]]* %2, i64 0, i64 %64, i64 4
  %80 = load double, double* %79, align 16, !tbaa !9
  br i1 %76, label %87, label %81

81:                                               ; preds = %63
  %82 = fcmp une double %78, %80
  br i1 %82, label %83, label %85

83:                                               ; preds = %81
  %84 = call i32 (i8*, ...) @printf(i8* nonnull dereferenceable(1) getelementptr inbounds ([19 x i8], [19 x i8]* @.str.2, i64 0, i64 0), double %78, double %80)
  br label %91

85:                                               ; preds = %81
  %86 = call i32 (i8*, ...) @printf(i8* nonnull dereferenceable(1) getelementptr inbounds ([13 x i8], [13 x i8]* @.str.3, i64 0, i64 0), double %78)
  br label %91

87:                                               ; preds = %63
  %88 = getelementptr inbounds [100 x [100 x double]], [100 x [100 x double]]* %2, i64 0, i64 %64, i64 5
  %89 = load double, double* %88, align 8, !tbaa !9
  %90 = call i32 (i8*, ...) @printf(i8* nonnull dereferenceable(1) getelementptr inbounds ([33 x i8], [33 x i8]* @.str.4, i64 0, i64 0), double %78, double %80, double %78, double %89)
  br label %91

91:                                               ; preds = %87, %85, %83
  %92 = add nuw nsw i64 %64, 1
  %93 = load i32, i32* %1, align 4, !tbaa !5
  %94 = sext i32 %93 to i64
  %95 = icmp slt i64 %92, %94
  br i1 %95, label %63, label %96, !llvm.loop !13

96:                                               ; preds = %91, %0, %9
  %97 = load %struct._IO_FILE*, %struct._IO_FILE** @stdin, align 8, !tbaa !14
  %98 = call i32 @getc(%struct._IO_FILE* %97) #5
  %99 = load %struct._IO_FILE*, %struct._IO_FILE** @stdin, align 8, !tbaa !14
  %100 = call i32 @getc(%struct._IO_FILE* %99) #5
  call void @llvm.lifetime.end.p0i8(i64 80000, i8* nonnull %4) #5
  call void @llvm.lifetime.end.p0i8(i64 4, i8* nonnull %3) #5
  ret i32 0
}

; Function Attrs: argmemonly mustprogress nofree nosync nounwind willreturn
declare void @llvm.lifetime.start.p0i8(i64 immarg, i8* nocapture) #1

; Function Attrs: argmemonly mustprogress nofree nounwind willreturn writeonly
declare void @llvm.memset.p0i8.i64(i8* nocapture writeonly, i8, i64, i1 immarg) #2

; Function Attrs: nofree nounwind
declare noundef i32 @__isoc99_scanf(i8* nocapture noundef readonly, ...) local_unnamed_addr #3

; Function Attrs: mustprogress nofree nounwind willreturn
declare double @sqrt(double) local_unnamed_addr #4

; Function Attrs: nofree nounwind
declare noundef i32 @printf(i8* nocapture noundef readonly, ...) local_unnamed_addr #3

; Function Attrs: argmemonly mustprogress nofree nosync nounwind willreturn
declare void @llvm.lifetime.end.p0i8(i64 immarg, i8* nocapture) #1

; Function Attrs: nofree nounwind
declare noundef i32 @getc(%struct._IO_FILE* nocapture noundef) local_unnamed_addr #3

declare float @sqrtf(float) local_unnamed_addr


!llvm.module.flags = !{!0, !1, !2, !3}
!llvm.ident = !{!4}

!0 = !{i32 1, !"wchar_size", i32 4}
!1 = !{i32 7, !"PIC Level", i32 2}
!2 = !{i32 7, !"PIE Level", i32 2}
!3 = !{i32 7, !"uwtable", i32 1}
!4 = !{!"clang version 13.0.0"}
!5 = !{!6, !6, i64 0}
!6 = !{!"int", !7, i64 0}
!7 = !{!"omnipotent char", !8, i64 0}
!8 = !{!"Simple C/C++ TBAA"}
!9 = !{!10, !10, i64 0}
!10 = !{!"double", !7, i64 0}
!11 = distinct !{!11, !12}
!12 = !{!"llvm.loop.mustprogress"}
!13 = distinct !{!13, !12}
!14 = !{!15, !15, i64 0}
!15 = !{!"any pointer", !7, i64 0}
